target datalayout = "e-m:e-p270:32:32-p271:32:32-p272:64:64-i64:64-i128:128-f80:128-n8:16:32:64-S128"
target triple = "x86_64-unknown-linux-gnu"

%"class.std::set.0" = type { %"class.std::_Rb_tree.1" }
%"class.std::_Rb_tree.1" = type { %"struct.std::_Rb_tree<QuantLib::Observer *, QuantLib::Observer *, std::_Identity<QuantLib::Observer *>, std::less<QuantLib::Observer *>>::_Rb_tree_impl" }
%"struct.std::_Rb_tree<QuantLib::Observer *, QuantLib::Observer *, std::_Identity<QuantLib::Observer *>, std::less<QuantLib::Observer *>>::_Rb_tree_impl" = type { [8 x i8], %"struct.std::_Rb_tree_header" }
%"struct.std::_Rb_tree_header" = type { %"struct.std::_Rb_tree_node_base", i64 }
%"struct.std::_Rb_tree_node_base" = type { i32, ptr, ptr, ptr }
%"class.std::set" = type { %"class.std::_Rb_tree" }
%"class.std::_Rb_tree" = type { %"struct.std::_Rb_tree<boost::shared_ptr<QuantLib::Observable>, boost::shared_ptr<QuantLib::Observable>, std::_Identity<boost::shared_ptr<QuantLib::Observable>>, std::less<boost::shared_ptr<QuantLib::Observable>>>::_Rb_tree_impl" }
%"struct.std::_Rb_tree<boost::shared_ptr<QuantLib::Observable>, boost::shared_ptr<QuantLib::Observable>, std::_Identity<boost::shared_ptr<QuantLib::Observable>>, std::less<boost::shared_ptr<QuantLib::Observable>>>::_Rb_tree_impl" = type { [8 x i8], %"struct.std::_Rb_tree_header" }
%"class.boost::detail::shared_count" = type { ptr }
%"class.QuantLib::Observable" = type { ptr, %"class.std::set.0" }
%"class.boost::shared_ptr.7" = type { ptr, %"class.boost::detail::shared_count" }
%"class.QuantLib::GemanRoncoroniProcess" = type { %"class.QuantLib::StochasticProcess1D", double, double, double, double, double, double, double, double, double, double, double, double, double, double, double, double, double, %"class.boost::shared_ptr.8" }
%"class.QuantLib::StochasticProcess1D" = type { %"class.QuantLib::StochasticProcess", %"class.boost::shared_ptr.7" }
%"class.QuantLib::StochasticProcess" = type { %"class.QuantLib::Observer", %"class.QuantLib::Observable", %"class.boost::shared_ptr.6" }
%"class.QuantLib::Observer" = type { ptr, %"class.std::set" }
%"class.boost::shared_ptr.6" = type { ptr, %"class.boost::detail::shared_count" }
%"class.boost::shared_ptr.8" = type { ptr, %"class.boost::detail::shared_count" }

; Function Attrs: mustprogress nounwind uwtable
define noundef double @_ZNK8QuantLib21GemanRoncoroniProcess5driftEdd(ptr noundef nonnull align 8 dereferenceable(296) %this, double noundef %t, double noundef %x) unnamed_addr #1 align 2 {
entry:
  %this.addr = alloca ptr, align 8
  %t.addr = alloca double, align 8
  %x.addr = alloca double, align 8
  %mu = alloca double, align 8
  %muPrime = alloca double, align 8
  store ptr %this, ptr %this.addr, align 8, !tbaa !3
  store double %t, ptr %t.addr, align 8, !tbaa !12
  store double %x, ptr %x.addr, align 8, !tbaa !12
  %this1 = load ptr, ptr %this.addr, align 8
  call void @llvm.lifetime.start.p0(i64 8, ptr %mu) #12
  %alpha_ = getelementptr inbounds nuw %"class.QuantLib::GemanRoncoroniProcess", ptr %this1, i32 0, i32 2
  %0 = load double, ptr %alpha_, align 8, !tbaa !39
  %beta_ = getelementptr inbounds nuw %"class.QuantLib::GemanRoncoroniProcess", ptr %this1, i32 0, i32 3
  %1 = load double, ptr %beta_, align 8, !tbaa !40
  %2 = load double, ptr %t.addr, align 8, !tbaa !12
  %3 = call double @llvm.fmuladd.f64(double %1, double %2, double %0)
  %gamma_ = getelementptr inbounds nuw %"class.QuantLib::GemanRoncoroniProcess", ptr %this1, i32 0, i32 4
  %4 = load double, ptr %gamma_, align 8, !tbaa !41
  %eps_ = getelementptr inbounds nuw %"class.QuantLib::GemanRoncoroniProcess", ptr %this1, i32 0, i32 6
  %5 = load double, ptr %eps_, align 8, !tbaa !43
  %6 = load double, ptr %t.addr, align 8, !tbaa !12
  %7 = call double @llvm.fmuladd.f64(double 0x401921FB54442D18, double %6, double %5)
  %call = call double @cos(double noundef %7) #12, !tbaa !57
  %8 = call double @llvm.fmuladd.f64(double %4, double %call, double %3)
  %delta_ = getelementptr inbounds nuw %"class.QuantLib::GemanRoncoroniProcess", ptr %this1, i32 0, i32 5
  %9 = load double, ptr %delta_, align 8, !tbaa !42
  %zeta_ = getelementptr inbounds nuw %"class.QuantLib::GemanRoncoroniProcess", ptr %this1, i32 0, i32 7
  %10 = load double, ptr %zeta_, align 8, !tbaa !44
  %11 = load double, ptr %t.addr, align 8, !tbaa !12
  %12 = call double @llvm.fmuladd.f64(double 0x402921FB54442D18, double %11, double %10)
  %call2 = call double @cos(double noundef %12) #12, !tbaa !57
  %13 = call double @llvm.fmuladd.f64(double %9, double %call2, double %8)
  store double %13, ptr %mu, align 8, !tbaa !12
  call void @llvm.lifetime.start.p0(i64 8, ptr %muPrime) #12
  %beta_3 = getelementptr inbounds nuw %"class.QuantLib::GemanRoncoroniProcess", ptr %this1, i32 0, i32 3
  %14 = load double, ptr %beta_3, align 8, !tbaa !40
  %gamma_4 = getelementptr inbounds nuw %"class.QuantLib::GemanRoncoroniProcess", ptr %this1, i32 0, i32 4
  %15 = load double, ptr %gamma_4, align 8, !tbaa !41
  %mul = fmul double %15, 2.000000e+00
  %mul5 = fmul double %mul, 0x400921FB54442D18
  %eps_6 = getelementptr inbounds nuw %"class.QuantLib::GemanRoncoroniProcess", ptr %this1, i32 0, i32 6
  %16 = load double, ptr %eps_6, align 8, !tbaa !43
  %17 = load double, ptr %t.addr, align 8, !tbaa !12
  %18 = call double @llvm.fmuladd.f64(double 0x401921FB54442D18, double %17, double %16)
  %call8 = call double @sin(double noundef %18) #12, !tbaa !57
  %neg = fneg double %mul5
  %19 = call double @llvm.fmuladd.f64(double %neg, double %call8, double %14)
  %delta_10 = getelementptr inbounds nuw %"class.QuantLib::GemanRoncoroniProcess", ptr %this1, i32 0, i32 5
  %20 = load double, ptr %delta_10, align 8, !tbaa !42
  %mul11 = fmul double %20, 4.000000e+00
  %mul12 = fmul double %mul11, 0x400921FB54442D18
  %zeta_13 = getelementptr inbounds nuw %"class.QuantLib::GemanRoncoroniProcess", ptr %this1, i32 0, i32 7
  %21 = load double, ptr %zeta_13, align 8, !tbaa !44
  %22 = load double, ptr %t.addr, align 8, !tbaa !12
  %23 = call double @llvm.fmuladd.f64(double 0x402921FB54442D18, double %22, double %21)
  %call15 = call double @sin(double noundef %23) #12, !tbaa !57
  %neg17 = fneg double %mul12
  %24 = call double @llvm.fmuladd.f64(double %neg17, double %call15, double %19)
  store double %24, ptr %muPrime, align 8, !tbaa !12
  %25 = load double, ptr %muPrime, align 8, !tbaa !12
  %theta1_ = getelementptr inbounds nuw %"class.QuantLib::GemanRoncoroniProcess", ptr %this1, i32 0, i32 14
  %26 = load double, ptr %theta1_, align 8, !tbaa !51
  %27 = load double, ptr %mu, align 8, !tbaa !12
  %28 = load double, ptr %x.addr, align 8, !tbaa !12
  %sub = fsub double %27, %28
  %29 = call double @llvm.fmuladd.f64(double %26, double %sub, double %25)
  call void @llvm.lifetime.end.p0(i64 8, ptr %muPrime) #12
  call void @llvm.lifetime.end.p0(i64 8, ptr %mu) #12
  ret double %29
}