; Function Attrs: mustprogress nofree nounwind willreturn memory(write, argmem: readwrite) uwtable
define noundef double @_ZNK8QuantLib21GemanRoncoroniProcess5driftEdd(ptr nocapture noundef nonnull readonly align 8 dereferenceable(296) %this, double noundef %t, double noundef %x) unnamed_addr #10 align 2 {
entry:
  %alpha_ = getelementptr inbounds nuw i8, ptr %this, i64 152
  %0 = load double, ptr %alpha_, align 8, !tbaa !54
  %beta_ = getelementptr inbounds nuw i8, ptr %this, i64 160
  %1 = load double, ptr %beta_, align 8, !tbaa !55
  %2 = tail call double @llvm.fmuladd.f64(double %1, double %t, double %0)
  %gamma_ = getelementptr inbounds nuw i8, ptr %this, i64 168
  %3 = load double, ptr %gamma_, align 8, !tbaa !56
  %eps_ = getelementptr inbounds nuw i8, ptr %this, i64 184
  %4 = load double, ptr %eps_, align 8, !tbaa !58
  %5 = tail call double @llvm.fmuladd.f64(double %t, double 0x401921FB54442D18, double %4)
  %call = tail call double @cos(double noundef %5) #21, !tbaa !70
  %6 = tail call double @llvm.fmuladd.f64(double %3, double %call, double %2)
  %delta_ = getelementptr inbounds nuw i8, ptr %this, i64 176
  %7 = load double, ptr %delta_, align 8, !tbaa !57
  %zeta_ = getelementptr inbounds nuw i8, ptr %this, i64 192
  %8 = load double, ptr %zeta_, align 8, !tbaa !59
  %9 = tail call double @llvm.fmuladd.f64(double %t, double 0x402921FB54442D18, double %8)
  %call2 = tail call double @cos(double noundef %9) #21, !tbaa !70
  %10 = tail call double @llvm.fmuladd.f64(double %7, double %call2, double %6)
  %mul = fmul double %3, 2.000000e+00
  %call8 = tail call double @sin(double noundef %5) #21, !tbaa !70
  %neg = fmul double %mul, 0xC00921FB54442D18
  %11 = tail call double @llvm.fmuladd.f64(double %neg, double %call8, double %1)
  %mul11 = fmul double %7, 4.000000e+00
  %call15 = tail call double @sin(double noundef %9) #21, !tbaa !70
  %neg17 = fmul double %mul11, 0xC00921FB54442D18
  %12 = tail call double @llvm.fmuladd.f64(double %neg17, double %call15, double %11)
  %theta1_ = getelementptr inbounds nuw i8, ptr %this, i64 248
  %13 = load double, ptr %theta1_, align 8, !tbaa !66
  %sub = fsub double %10, %x
  %14 = tail call double @llvm.fmuladd.f64(double %13, double %sub, double %12)
  ret double %14
}